; Function Attrs: mustprogress uwtable
define hidden void @_ZN1q11interpreter11display_regERSoj(ptr nocapture noundef nonnull readonly align 8 dereferenceable(160) %this, ptr noundef nonnull align 8 dereferenceable(8) %out, i32 noundef %reg) local_unnamed_addr #4 align 2 personality ptr @__gxx_personality_v0 {
entry:
  %ref.tmp = alloca %struct.mk_pp, align 8
  %call = tail call noundef nonnull align 8 dereferenceable(8) ptr @_ZStlsISt11char_traitsIcEERSt13basic_ostreamIcT_ES5_PKc(ptr noundef nonnull align 8 dereferenceable(8) %out, ptr noundef nonnull @.str.24)
  %call2 = tail call noundef nonnull align 8 dereferenceable(8) ptr @_ZNSolsEj(ptr noundef nonnull align 8 dereferenceable(8) %call, i32 noundef %reg)
  %call3 = tail call noundef nonnull align 8 dereferenceable(8) ptr @_ZStlsISt11char_traitsIcEERSt13basic_ostreamIcT_ES5_PKc(ptr noundef nonnull align 8 dereferenceable(8) %call2, ptr noundef nonnull @.str.25)
  %m_registers = getelementptr inbounds i8, ptr %this, i64 32
  %0 = load ptr, ptr %m_registers, align 8
  %idxprom.i = zext i32 %reg to i64
  %arrayidx.i = getelementptr inbounds ptr, ptr %0, i64 %idxprom.i
  %1 = load ptr, ptr %arrayidx.i, align 8
  %tobool.not = icmp eq ptr %1, null
  br i1 %tobool.not, label %if.then, label %if.else

if.then:                                          ; preds = %entry
  %call5 = tail call noundef nonnull align 8 dereferenceable(8) ptr @_ZStlsISt11char_traitsIcEERSt13basic_ostreamIcT_ES5_PKc(ptr noundef nonnull align 8 dereferenceable(8) %out, ptr noundef nonnull @.str.26)
  br label %if.end25

if.else:                                          ; preds = %entry
  %call6 = tail call noundef nonnull align 8 dereferenceable(8) ptr @_ZStlsISt11char_traitsIcEERSt13basic_ostreamIcT_ES5_PKc(ptr noundef nonnull align 8 dereferenceable(8) %out, ptr noundef nonnull @.str.10)
  %2 = load ptr, ptr %1, align 8
  %3 = load i32, ptr %2, align 4
  %call8 = tail call noundef nonnull align 8 dereferenceable(8) ptr @_ZNSolsEj(ptr noundef nonnull align 8 dereferenceable(8) %call6, i32 noundef %3)
  %call9 = tail call noundef nonnull align 8 dereferenceable(8) ptr @_ZStlsISt11char_traitsIcEERSt13basic_ostreamIcT_ES5_PKc(ptr noundef nonnull align 8 dereferenceable(8) %call8, ptr noundef nonnull @.str.27)
  %m_root.i = getelementptr inbounds i8, ptr %1, i64 64
  %4 = load ptr, ptr %m_root.i, align 8
  %5 = load ptr, ptr %4, align 8
  %6 = load i32, ptr %5, align 4
  %call12 = tail call noundef nonnull align 8 dereferenceable(8) ptr @_ZNSolsEj(ptr noundef nonnull align 8 dereferenceable(8) %call9, i32 noundef %6)
  %m_use_filters = getelementptr inbounds i8, ptr %this, i64 24
  %7 = load i8, ptr %m_use_filters, align 8
  %8 = and i8 %7, 1
  %tobool13.not = icmp eq i8 %8, 0
  br i1 %tobool13.not, label %if.end, label %if.then14

if.then14:                                        ; preds = %if.else
  %call15 = tail call noundef nonnull align 8 dereferenceable(8) ptr @_ZStlsISt11char_traitsIcEERSt13basic_ostreamIcT_ES5_PKc(ptr noundef nonnull align 8 dereferenceable(8) %out, ptr noundef nonnull @.str.28)
  %9 = load ptr, ptr %m_root.i, align 8
  %m_lbls.i = getelementptr inbounds i8, ptr %9, i64 160
  tail call void @_ZNK10approx_set7displayERSo(ptr noundef nonnull align 8 dereferenceable(8) %m_lbls.i, ptr noundef nonnull align 8 dereferenceable(8) %call15)
  %call19 = tail call noundef nonnull align 8 dereferenceable(8) ptr @_ZStlsISt11char_traitsIcEERSt13basic_ostreamIcT_ES5_PKc(ptr noundef nonnull align 8 dereferenceable(8) %call15, ptr noundef nonnull @.str.3)
  br label %if.end

if.end:                                           ; preds = %if.then14, %if.else
  %call20 = tail call noundef nonnull align 8 dereferenceable(8) ptr @_ZStlsISt11char_traitsIcEERSt13basic_ostreamIcT_ES5_PKc(ptr noundef nonnull align 8 dereferenceable(8) %out, ptr noundef nonnull @.str.29)
  %10 = load ptr, ptr %1, align 8
  %m = getelementptr inbounds i8, ptr %this, i64 8
  %11 = load ptr, ptr %m, align 8
  call void @_ZN11mk_ismt2_ppC2EP3astR11ast_managerjjPKc(ptr noundef nonnull align 8 dereferenceable(48) %ref.tmp, ptr noundef %10, ptr noundef nonnull align 8 dereferenceable(976) %11, i32 noundef 0, i32 noundef 0, ptr noundef null)
  %call22 = invoke noundef nonnull align 8 dereferenceable(8) ptr @_ZlsRSoRK11mk_ismt2_pp(ptr noundef nonnull align 8 dereferenceable(8) %out, ptr noundef nonnull align 8 dereferenceable(48) %ref.tmp)
          to label %invoke.cont unwind label %lpad

invoke.cont:                                      ; preds = %if.end
  %call24 = invoke noundef nonnull align 8 dereferenceable(8) ptr @_ZStlsISt11char_traitsIcEERSt13basic_ostreamIcT_ES5_PKc(ptr noundef nonnull align 8 dereferenceable(8) %call22, ptr noundef nonnull @.str.29)
          to label %invoke.cont23 unwind label %lpad

invoke.cont23:                                    ; preds = %invoke.cont
  %m_empty.i.i = getelementptr inbounds i8, ptr %ref.tmp, i64 16
  call void @_ZN10params_refD1Ev(ptr noundef nonnull align 8 dereferenceable(8) %m_empty.i.i) #18
  br label %if.end25

lpad:                                             ; preds = %invoke.cont, %if.end
  %12 = landingpad { ptr, i32 }
          cleanup
  %m_empty.i.i12 = getelementptr inbounds i8, ptr %ref.tmp, i64 16
  call void @_ZN10params_refD1Ev(ptr noundef nonnull align 8 dereferenceable(8) %m_empty.i.i12) #18
  resume { ptr, i32 } %12

if.end25:                                         ; preds = %invoke.cont23, %if.then
  ret void
}